; Function Attrs: mustprogress nounwind uwtable
define internal fastcc void @_ZN12_GLOBAL__N_111ProfileNodeclIN4llvm16itanium_demangle21StructuredBindingNameEEEvPKT_(ptr nonnull %.0.val, ptr readonly %.16.val, i64 %.24.val) unnamed_addr #0 align 2 {
  tail call void @_ZN4llvm16FoldingSetNodeID10AddIntegerEy(ptr noundef nonnull align 8 dereferenceable(144) %.0.val, i64 noundef 53)
  tail call void @_ZN4llvm16FoldingSetNodeID10AddIntegerEy(ptr noundef nonnull align 8 dereferenceable(144) %.0.val, i64 noundef %.24.val)
  %1 = getelementptr inbounds ptr, ptr %.16.val, i64 %.24.val
  %.not10.i.i.i.i = icmp eq i64 %.24.val, 0
  br i1 %.not10.i.i.i.i, label %_ZNK4llvm16itanium_demangle21StructuredBindingName5matchIN12_GLOBAL__N_119ProfileSpecificNodeIS1_EEEEvT_.exit, label %.lr.ph.i.i.i.i

.lr.ph.i.i.i.i:                                   ; preds = %0, %.lr.ph.i.i.i.i
  %.011.i.i.i.i = phi ptr [ %4, %.lr.ph.i.i.i.i ], [ %.16.val, %0 ]
  %2 = load ptr, ptr %.011.i.i.i.i, align 8
  %3 = ptrtoint ptr %2 to i64
  tail call void @_ZN4llvm16FoldingSetNodeID10AddIntegerEy(ptr noundef nonnull align 8 dereferenceable(144) %.0.val, i64 noundef %3)
  %4 = getelementptr inbounds nuw i8, ptr %.011.i.i.i.i, i64 8
  %.not.i.i.i.i = icmp eq ptr %4, %1
  br i1 %.not.i.i.i.i, label %_ZNK4llvm16itanium_demangle21StructuredBindingName5matchIN12_GLOBAL__N_119ProfileSpecificNodeIS1_EEEEvT_.exit, label %.lr.ph.i.i.i.i

_ZNK4llvm16itanium_demangle21StructuredBindingName5matchIN12_GLOBAL__N_119ProfileSpecificNodeIS1_EEEEvT_.exit: ; preds = %.lr.ph.i.i.i.i, %0
  ret void
}